Certificate:
    Data:
        Version: 3 (0x2)
        Serial Number: 4194 (0x1062)
        Signature Algorithm: sha512WithRSAEncryption
        Issuer: C=US, ST=Virginia, O=MikeSoh.com, Inc., OU=Tauron User CA - Root Certificate, CN=Tauron User CA - Root Certificate
        Validity
            Not Before: Nov 30 19:05:52 2019 GMT
            Not After : Dec 31 23:59:59 2039 GMT
        Subject: C=US, ST=Virginia, O=MikeSoh.com, Inc., OU=Tauron User CA - Root Certificate, CN=Tauron User CA - Root Certificate
        Subject Public Key Info:
            Public Key Algorithm: rsaEncryption
                RSA Public-Key: (2048 bit)
                Modulus:
                    00:c4:24:da:b3:48:c4:6c:01:a7:31:2a:35:6c:18:
                    39:37:36:e7:8c:bc:ed:cd:e2:34:21:e5:4b:44:6e:
                    54:88:7b:50:3e:c6:86:1a:cf:78:bf:1d:eb:9c:ae:
                    aa:9f:95:85:f7:4c:de:8c:78:57:ed:da:48:d1:f0:
                    fb:ee:d2:bb:c4:35:ff:d5:08:3c:04:f1:a4:1e:0a:
                    08:52:bf:b9:39:c1:0b:05:22:9b:fa:24:d4:65:e6:
                    cd:0a:ff:70:fa:a9:1b:30:5d:dc:a4:bf:bf:be:4e:
                    c2:5f:da:2f:74:3d:75:87:57:ed:e6:4a:64:2d:46:
                    46:02:fe:2b:94:64:5c:cf:c9:f3:38:41:e6:f7:c8:
                    95:3e:ae:64:19:93:07:49:d1:8a:85:61:ab:e7:28:
                    b1:9b:f8:f8:cb:4f:e0:f4:68:d5:8d:a4:08:87:9e:
                    87:80:14:2c:64:9a:94:61:7b:88:98:c0:95:b8:43:
                    9a:f8:b9:42:e6:58:60:22:7e:eb:e5:e6:d1:49:ba:
                    24:fd:8f:e7:c6:e4:d0:9f:4d:b7:34:ff:ca:be:67:
                    ef:db:6b:fb:36:4e:66:c3:82:b5:e1:50:93:08:30:
                    fe:5b:02:63:25:15:c3:ac:89:88:6a:25:a1:42:f4:
                    03:bc:12:3f:f5:b7:9f:54:60:06:c9:21:d7:25:ff:
                    9c:45
                Exponent: 65537 (0x10001)
        X509v3 extensions:
            X509v3 Subject Key Identifier: 
                AC:55:59:B0:9D:CB:C2:5F:C5:2B:78:10:FD:89:0C:8F:13:A4:CB:BC
            X509v3 Authority Key Identifier: 
                keyid:AC:55:59:B0:9D:CB:C2:5F:C5:2B:78:10:FD:89:0C:8F:13:A4:CB:BC
                DirName:/C=US/ST=Virginia/O=MikeSoh.com, Inc./OU=Tauron User CA - Root Certificate/CN=Tauron User CA - Root Certificate
                serial:10:62

            X509v3 Basic Constraints: 
                CA:TRUE
    Signature Algorithm: sha512WithRSAEncryption
         52:b6:84:fb:c0:8e:27:db:bd:63:3a:57:5f:65:24:80:49:36:
         f4:f3:ca:52:79:62:d0:0a:b3:4c:44:8c:5d:7f:fa:e2:70:29:
         56:de:9e:2d:08:44:62:e7:d0:b9:35:03:39:1a:32:4f:d3:b1:
         44:93:f0:48:3a:48:24:c5:71:1d:a0:89:11:c9:26:02:5f:e9:
         91:82:1c:1d:45:f2:24:3f:f5:0f:70:3e:f3:f8:82:60:1b:7e:
         37:ec:e6:9a:ee:61:fb:5b:01:51:e2:41:92:8d:07:73:94:3c:
         9c:8c:1c:57:21:ed:a7:49:a9:1b:88:86:3f:bb:9a:e5:41:78:
         e2:1d:e5:c7:13:c0:45:2d:6f:30:60:75:d4:3c:7d:8e:62:30:
         b6:fb:1d:c9:f2:a1:1c:4d:94:9a:e9:7a:75:3a:99:4c:ca:5e:
         ef:53:79:7b:80:c1:3f:1f:56:7d:a5:e9:60:63:f3:6f:f9:93:
         1d:58:e2:fe:88:54:2a:83:6e:f8:b8:b5:11:18:da:43:ed:ef:
         d8:37:81:ce:9c:14:39:ae:04:4f:e2:78:b5:03:81:8a:12:59:
         99:7e:37:d8:01:47:e2:3d:ab:c1:0c:b6:75:fd:20:cb:52:0a:
         ef:ab:e0:67:99:d4:4d:9a:00:d4:14:da:cb:92:ad:72:aa:81:
         8b:a7:d2:73
-----BEGIN CERTIFICATE-----
MIIEnDCCA4SgAwIBAgICEGIwDQYJKoZIhvcNAQENBQAwgZQxCzAJBgNVBAYTAlVT
MREwDwYDVQQIEwhWaXJnaW5pYTEaMBgGA1UEChMRTWlrZVNvaC5jb20sIEluYy4x
KjAoBgNVBAsTIVRhdXJvbiBVc2VyIENBIC0gUm9vdCBDZXJ0aWZpY2F0ZTEqMCgG
A1UEAxMhVGF1cm9uIFVzZXIgQ0EgLSBSb290IENlcnRpZmljYXRlMB4XDTE5MTEz
MDE5MDU1MloXDTM5MTIzMTIzNTk1OVowgZQxCzAJBgNVBAYTAlVTMREwDwYDVQQI
EwhWaXJnaW5pYTEaMBgGA1UEChMRTWlrZVNvaC5jb20sIEluYy4xKjAoBgNVBAsT
IVRhdXJvbiBVc2VyIENBIC0gUm9vdCBDZXJ0aWZpY2F0ZTEqMCgGA1UEAxMhVGF1
cm9uIFVzZXIgQ0EgLSBSb290IENlcnRpZmljYXRlMIIBIjANBgkqhkiG9w0BAQEF
AAOCAQ8AMIIBCgKCAQEAxCTas0jEbAGnMSo1bBg5NzbnjLztzeI0IeVLRG5UiHtQ
PsaGGs94vx3rnK6qn5WF90zejHhX7dpI0fD77tK7xDX/1Qg8BPGkHgoIUr+5OcEL
BSKb+iTUZebNCv9w+qkbMF3cpL+/vk7CX9ovdD11h1ft5kpkLUZGAv4rlGRcz8nz
OEHm98iVPq5kGZMHSdGKhWGr5yixm/j4y0/g9GjVjaQIh56HgBQsZJqUYXuImMCV
uEOa+LlC5lhgIn7r5ebRSbok/Y/nxuTQn023NP/Kvmfv22v7Nk5mw4K14VCTCDD+
WwJjJRXDrImIaiWhQvQDvBI/9befVGAGySHXJf+cRQIDAQABo4H1MIHyMB0GA1Ud
DgQWBBSsVVmwncvCX8UreBD9iQyPE6TLvDCBwgYDVR0jBIG6MIG3gBSsVVmwncvC
X8UreBD9iQyPE6TLvKGBmqSBlzCBlDELMAkGA1UEBhMCVVMxETAPBgNVBAgTCFZp
cmdpbmlhMRowGAYDVQQKExFNaWtlU29oLmNvbSwgSW5jLjEqMCgGA1UECxMhVGF1
cm9uIFVzZXIgQ0EgLSBSb290IENlcnRpZmljYXRlMSowKAYDVQQDEyFUYXVyb24g
VXNlciBDQSAtIFJvb3QgQ2VydGlmaWNhdGWCAhBiMAwGA1UdEwQFMAMBAf8wDQYJ
KoZIhvcNAQENBQADggEBAFK2hPvAjifbvWM6V19lJIBJNvTzylJ5YtAKs0xEjF1/
+uJwKVbeni0IRGLn0Lk1AzkaMk/TsUST8Eg6SCTFcR2giRHJJgJf6ZGCHB1F8iQ/
9Q9wPvP4gmAbfjfs5pruYftbAVHiQZKNB3OUPJyMHFch7adJqRuIhj+7muVBeOId
5ccTwEUtbzBgddQ8fY5iMLb7HcnyoRxNlJrpenU6mUzKXu9TeXuAwT8fVn2l6WBj
82/5kx1Y4v6IVCqDbvi4tREY2kPt79g3gc6cFDmuBE/ieLUDgYoSWZl+N9gBR+I9
q8EMtnX9IMtSCu+r4GeZ1E2aANQU2suSrXKqgYun0nM=
-----END CERTIFICATE-----
